target datalayout = "e-m:e-p270:32:32-p271:32:32-p272:64:64-i64:64-i128:128-f80:128-n8:16:32:64-S128"
target triple = "x86_64-pc-linux-gnu"

%struct.FrameRateContext = type { ptr, %struct.AVRational, i32, double, i32, i32, [4 x i32], [4 x i32], i32, %struct.AVRational, %struct.AVRational, ptr, double, i32, i32, ptr, ptr, ptr, i64, i64, i64, double, i32, i64, i64, ptr }
%struct.AVRational = type { i32, i32 }
%struct.AVFilterContext = type { ptr, ptr, ptr, ptr, ptr, i32, ptr, ptr, i32, ptr, ptr, i32, i32, ptr, ptr, ptr, ptr, i32, ptr, i32, i32 }
%struct.AVChannelLayout = type { i32, i32, %union.anon.1, ptr }
%union.anon.1 = type { i64 }
%struct.AVFilterLink = type { ptr, ptr, ptr, ptr, i32, i32, i32, i32, %struct.AVRational, i32, i32, i32, %struct.AVChannelLayout, %struct.AVRational, ptr, i32, %struct.AVFilterFormatsConfig, %struct.AVFilterFormatsConfig }
%struct.AVFilterFormatsConfig = type { ptr, ptr, ptr, ptr, ptr }
%struct.FilterLink = type { %struct.AVFilterLink, ptr, i64, i64, i32, i32, i64, i64, i64, i64, %struct.AVRational, ptr }

@.str.3 = private unnamed_addr constant [17 x i8] c"config_output()\0A\00", align 1
@.str.4 = private unnamed_addr constant [44 x i8] c"config_output() input time base:%u/%u (%f)\0A\00", align 1
@.str.5 = private unnamed_addr constant [35 x i8] c"time base:%u/%u -> %u/%u exact:%d\0A\00", align 1
@.str.6 = private unnamed_addr constant [34 x i8] c"Timebase conversion is not exact\0A\00", align 1
@.str.7 = private unnamed_addr constant [55 x i8] c"config_output() output time base:%u/%u (%f) w:%d h:%d\0A\00", align 1
@.str.8 = private unnamed_addr constant [61 x i8] c"fps -> fps:%u/%u scene score:%f interpolate start:%d end:%d\0A\00", align 1

; Function Attrs: inlinehint nounwind uwtable
define internal double @av_q2d(i64 %0) #5 {
  %2 = alloca %struct.AVRational, align 4
  store i64 %0, ptr %2, align 4
  %3 = getelementptr inbounds nuw %struct.AVRational, ptr %2, i32 0, i32 0
  %4 = load i32, ptr %3, align 4, !tbaa !100
  %5 = sitofp i32 %4 to double
  %6 = getelementptr inbounds nuw %struct.AVRational, ptr %2, i32 0, i32 1
  %7 = load i32, ptr %6, align 4, !tbaa !101
  %8 = sitofp i32 %7 to double
  %9 = fdiv nsz double %5, %8
  ret double %9
}

; Function Attrs: inlinehint nounwind uwtable
define internal ptr @ff_filter_link(ptr noundef %0) #5 {
  %2 = alloca ptr, align 8
  store ptr %0, ptr %2, align 8, !tbaa !47
  %3 = load ptr, ptr %2, align 8, !tbaa !47
  ret ptr %3
}

; Function Attrs: nounwind uwtable
define internal i32 @config_output(ptr noundef %0) #0 {
  %2 = alloca ptr, align 8
  %3 = alloca ptr, align 8
  %4 = alloca ptr, align 8
  %5 = alloca ptr, align 8
  %6 = alloca i32, align 4
  store ptr %0, ptr %2, align 8, !tbaa !47
  call void @llvm.lifetime.start.p0(i64 8, ptr %3) #11
  %7 = load ptr, ptr %2, align 8, !tbaa !47
  %8 = getelementptr inbounds nuw %struct.AVFilterLink, ptr %7, i32 0, i32 0
  %9 = load ptr, ptr %8, align 8, !tbaa !86
  store ptr %9, ptr %3, align 8, !tbaa !33
  call void @llvm.lifetime.start.p0(i64 8, ptr %4) #11
  %10 = load ptr, ptr %2, align 8, !tbaa !47
  %11 = call ptr @ff_filter_link(ptr noundef %10)
  store ptr %11, ptr %4, align 8, !tbaa !87
  call void @llvm.lifetime.start.p0(i64 8, ptr %5) #11
  %12 = load ptr, ptr %3, align 8, !tbaa !33
  %13 = getelementptr inbounds nuw %struct.AVFilterContext, ptr %12, i32 0, i32 9
  %14 = load ptr, ptr %13, align 8, !tbaa !35
  store ptr %14, ptr %5, align 8, !tbaa !4
  call void @llvm.lifetime.start.p0(i64 4, ptr %6) #11
  %15 = load ptr, ptr %3, align 8, !tbaa !33
  call void (ptr, i32, ptr, ...) @av_log(ptr noundef %15, i32 noundef 48, ptr noundef @.str.3)
  %16 = load ptr, ptr %3, align 8, !tbaa !33
  %17 = load ptr, ptr %3, align 8, !tbaa !33
  %18 = getelementptr inbounds nuw %struct.AVFilterContext, ptr %17, i32 0, i32 4
  %19 = load ptr, ptr %18, align 8, !tbaa !46
  %20 = getelementptr inbounds ptr, ptr %19, i64 0
  %21 = load ptr, ptr %20, align 8, !tbaa !47
  %22 = getelementptr inbounds nuw %struct.AVFilterLink, ptr %21, i32 0, i32 13
  %23 = getelementptr inbounds nuw %struct.AVRational, ptr %22, i32 0, i32 0
  %24 = load i32, ptr %23, align 8, !tbaa !89
  %25 = load ptr, ptr %3, align 8, !tbaa !33
  %26 = getelementptr inbounds nuw %struct.AVFilterContext, ptr %25, i32 0, i32 4
  %27 = load ptr, ptr %26, align 8, !tbaa !46
  %28 = getelementptr inbounds ptr, ptr %27, i64 0
  %29 = load ptr, ptr %28, align 8, !tbaa !47
  %30 = getelementptr inbounds nuw %struct.AVFilterLink, ptr %29, i32 0, i32 13
  %31 = getelementptr inbounds nuw %struct.AVRational, ptr %30, i32 0, i32 1
  %32 = load i32, ptr %31, align 4, !tbaa !90
  %33 = load ptr, ptr %3, align 8, !tbaa !33
  %34 = getelementptr inbounds nuw %struct.AVFilterContext, ptr %33, i32 0, i32 4
  %35 = load ptr, ptr %34, align 8, !tbaa !46
  %36 = getelementptr inbounds ptr, ptr %35, i64 0
  %37 = load ptr, ptr %36, align 8, !tbaa !47
  %38 = getelementptr inbounds nuw %struct.AVFilterLink, ptr %37, i32 0, i32 13
  %39 = load i64, ptr %38, align 8
  %40 = call nsz double @av_q2d(i64 %39)
  call void (ptr, i32, ptr, ...) @av_log(ptr noundef %16, i32 noundef 48, ptr noundef @.str.4, i32 noundef %24, i32 noundef %32, double noundef %40)
  %41 = load ptr, ptr %5, align 8, !tbaa !4
  %42 = getelementptr inbounds nuw %struct.FrameRateContext, ptr %41, i32 0, i32 10
  %43 = getelementptr inbounds nuw %struct.AVRational, ptr %42, i32 0, i32 0
  %44 = load ptr, ptr %5, align 8, !tbaa !4
  %45 = getelementptr inbounds nuw %struct.FrameRateContext, ptr %44, i32 0, i32 10
  %46 = getelementptr inbounds nuw %struct.AVRational, ptr %45, i32 0, i32 1
  %47 = load ptr, ptr %5, align 8, !tbaa !4
  %48 = getelementptr inbounds nuw %struct.FrameRateContext, ptr %47, i32 0, i32 9
  %49 = getelementptr inbounds nuw %struct.AVRational, ptr %48, i32 0, i32 0
  %50 = load i32, ptr %49, align 4, !tbaa !91
  %51 = sext i32 %50 to i64
  %52 = load ptr, ptr %5, align 8, !tbaa !4
  %53 = getelementptr inbounds nuw %struct.FrameRateContext, ptr %52, i32 0, i32 1
  %54 = getelementptr inbounds nuw %struct.AVRational, ptr %53, i32 0, i32 0
  %55 = load i32, ptr %54, align 8, !tbaa !92
  %56 = sext i32 %55 to i64
  %57 = mul nsw i64 %51, %56
  %58 = load ptr, ptr %5, align 8, !tbaa !4
  %59 = getelementptr inbounds nuw %struct.FrameRateContext, ptr %58, i32 0, i32 9
  %60 = getelementptr inbounds nuw %struct.AVRational, ptr %59, i32 0, i32 1
  %61 = load i32, ptr %60, align 4, !tbaa !93
  %62 = sext i32 %61 to i64
  %63 = load ptr, ptr %5, align 8, !tbaa !4
  %64 = getelementptr inbounds nuw %struct.FrameRateContext, ptr %63, i32 0, i32 1
  %65 = getelementptr inbounds nuw %struct.AVRational, ptr %64, i32 0, i32 1
  %66 = load i32, ptr %65, align 4, !tbaa !94
  %67 = sext i32 %66 to i64
  %68 = mul nsw i64 %62, %67
  %69 = call i64 @av_gcd(i64 noundef %57, i64 noundef %68) #12
  %70 = load ptr, ptr %5, align 8, !tbaa !4
  %71 = getelementptr inbounds nuw %struct.FrameRateContext, ptr %70, i32 0, i32 9
  %72 = getelementptr inbounds nuw %struct.AVRational, ptr %71, i32 0, i32 1
  %73 = load i32, ptr %72, align 4, !tbaa !93
  %74 = sext i32 %73 to i64
  %75 = load ptr, ptr %5, align 8, !tbaa !4
  %76 = getelementptr inbounds nuw %struct.FrameRateContext, ptr %75, i32 0, i32 1
  %77 = getelementptr inbounds nuw %struct.AVRational, ptr %76, i32 0, i32 0
  %78 = load i32, ptr %77, align 8, !tbaa !92
  %79 = sext i32 %78 to i64
  %80 = mul nsw i64 %74, %79
  %81 = call i32 @av_reduce(ptr noundef %43, ptr noundef %46, i64 noundef %69, i64 noundef %80, i64 noundef 2147483647)
  store i32 %81, ptr %6, align 4, !tbaa !22
  %82 = load ptr, ptr %3, align 8, !tbaa !33
  %83 = load ptr, ptr %5, align 8, !tbaa !4
  %84 = getelementptr inbounds nuw %struct.FrameRateContext, ptr %83, i32 0, i32 9
  %85 = getelementptr inbounds nuw %struct.AVRational, ptr %84, i32 0, i32 0
  %86 = load i32, ptr %85, align 4, !tbaa !91
  %87 = load ptr, ptr %5, align 8, !tbaa !4
  %88 = getelementptr inbounds nuw %struct.FrameRateContext, ptr %87, i32 0, i32 9
  %89 = getelementptr inbounds nuw %struct.AVRational, ptr %88, i32 0, i32 1
  %90 = load i32, ptr %89, align 4, !tbaa !93
  %91 = load ptr, ptr %5, align 8, !tbaa !4
  %92 = getelementptr inbounds nuw %struct.FrameRateContext, ptr %91, i32 0, i32 10
  %93 = getelementptr inbounds nuw %struct.AVRational, ptr %92, i32 0, i32 0
  %94 = load i32, ptr %93, align 4, !tbaa !95
  %95 = load ptr, ptr %5, align 8, !tbaa !4
  %96 = getelementptr inbounds nuw %struct.FrameRateContext, ptr %95, i32 0, i32 10
  %97 = getelementptr inbounds nuw %struct.AVRational, ptr %96, i32 0, i32 1
  %98 = load i32, ptr %97, align 4, !tbaa !96
  %99 = load i32, ptr %6, align 4, !tbaa !22
  call void (ptr, i32, ptr, ...) @av_log(ptr noundef %82, i32 noundef 32, ptr noundef @.str.5, i32 noundef %86, i32 noundef %90, i32 noundef %94, i32 noundef %98, i32 noundef %99)
  %100 = load i32, ptr %6, align 4, !tbaa !22
  %101 = icmp ne i32 %100, 0
  br i1 %101, label %104, label %102

102:                                              ; preds = %1
  %103 = load ptr, ptr %3, align 8, !tbaa !33
  call void (ptr, i32, ptr, ...) @av_log(ptr noundef %103, i32 noundef 24, ptr noundef @.str.6)
  br label %104

104:                                              ; preds = %102, %1
  %105 = load ptr, ptr %4, align 8, !tbaa !87
  %106 = getelementptr inbounds nuw %struct.FilterLink, ptr %105, i32 0, i32 10
  %107 = load ptr, ptr %5, align 8, !tbaa !4
  %108 = getelementptr inbounds nuw %struct.FrameRateContext, ptr %107, i32 0, i32 1
  call void @llvm.memcpy.p0.p0.i64(ptr align 8 %106, ptr align 8 %108, i64 8, i1 false), !tbaa.struct !85
  %109 = load ptr, ptr %2, align 8, !tbaa !47
  %110 = getelementptr inbounds nuw %struct.AVFilterLink, ptr %109, i32 0, i32 13
  %111 = load ptr, ptr %5, align 8, !tbaa !4
  %112 = getelementptr inbounds nuw %struct.FrameRateContext, ptr %111, i32 0, i32 10
  call void @llvm.memcpy.p0.p0.i64(ptr align 8 %110, ptr align 4 %112, i64 8, i1 false), !tbaa.struct !85
  %113 = load ptr, ptr %3, align 8, !tbaa !33
  %114 = load ptr, ptr %2, align 8, !tbaa !47
  %115 = getelementptr inbounds nuw %struct.AVFilterLink, ptr %114, i32 0, i32 13
  %116 = getelementptr inbounds nuw %struct.AVRational, ptr %115, i32 0, i32 0
  %117 = load i32, ptr %116, align 8, !tbaa !89
  %118 = load ptr, ptr %2, align 8, !tbaa !47
  %119 = getelementptr inbounds nuw %struct.AVFilterLink, ptr %118, i32 0, i32 13
  %120 = getelementptr inbounds nuw %struct.AVRational, ptr %119, i32 0, i32 1
  %121 = load i32, ptr %120, align 4, !tbaa !90
  %122 = load ptr, ptr %2, align 8, !tbaa !47
  %123 = getelementptr inbounds nuw %struct.AVFilterLink, ptr %122, i32 0, i32 13
  %124 = load i64, ptr %123, align 8
  %125 = call nsz double @av_q2d(i64 %124)
  %126 = load ptr, ptr %2, align 8, !tbaa !47
  %127 = getelementptr inbounds nuw %struct.AVFilterLink, ptr %126, i32 0, i32 6
  %128 = load i32, ptr %127, align 8, !tbaa !79
  %129 = load ptr, ptr %2, align 8, !tbaa !47
  %130 = getelementptr inbounds nuw %struct.AVFilterLink, ptr %129, i32 0, i32 7
  %131 = load i32, ptr %130, align 4, !tbaa !80
  call void (ptr, i32, ptr, ...) @av_log(ptr noundef %113, i32 noundef 48, ptr noundef @.str.7, i32 noundef %117, i32 noundef %121, double noundef %125, i32 noundef %128, i32 noundef %131)
  %132 = load ptr, ptr %3, align 8, !tbaa !33
  %133 = load ptr, ptr %5, align 8, !tbaa !4
  %134 = getelementptr inbounds nuw %struct.FrameRateContext, ptr %133, i32 0, i32 1
  %135 = getelementptr inbounds nuw %struct.AVRational, ptr %134, i32 0, i32 0
  %136 = load i32, ptr %135, align 8, !tbaa !92
  %137 = load ptr, ptr %5, align 8, !tbaa !4
  %138 = getelementptr inbounds nuw %struct.FrameRateContext, ptr %137, i32 0, i32 1
  %139 = getelementptr inbounds nuw %struct.AVRational, ptr %138, i32 0, i32 1
  %140 = load i32, ptr %139, align 4, !tbaa !94
  %141 = load ptr, ptr %5, align 8, !tbaa !4
  %142 = getelementptr inbounds nuw %struct.FrameRateContext, ptr %141, i32 0, i32 3
  %143 = load double, ptr %142, align 8, !tbaa !97
  %144 = load ptr, ptr %5, align 8, !tbaa !4
  %145 = getelementptr inbounds nuw %struct.FrameRateContext, ptr %144, i32 0, i32 4
  %146 = load i32, ptr %145, align 8, !tbaa !98
  %147 = load ptr, ptr %5, align 8, !tbaa !4
  %148 = getelementptr inbounds nuw %struct.FrameRateContext, ptr %147, i32 0, i32 5
  %149 = load i32, ptr %148, align 4, !tbaa !99
  call void (ptr, i32, ptr, ...) @av_log(ptr noundef %132, i32 noundef 32, ptr noundef @.str.8, i32 noundef %136, i32 noundef %140, double noundef %143, i32 noundef %146, i32 noundef %149)
  call void @llvm.lifetime.end.p0(i64 4, ptr %6) #11
  call void @llvm.lifetime.end.p0(i64 8, ptr %5) #11
  call void @llvm.lifetime.end.p0(i64 8, ptr %4) #11
  call void @llvm.lifetime.end.p0(i64 8, ptr %3) #11
  ret i32 0
}