; Function Attrs: nounwind uwtable
define internal noundef i32 @config_output(ptr noundef captures(none) initializes((96, 104), (264, 272)) %0) #4 {
  %2 = load ptr, ptr %0, align 8, !tbaa !90
  %3 = getelementptr inbounds nuw i8, ptr %2, i64 72
  %4 = load ptr, ptr %3, align 8, !tbaa !25
  tail call void (ptr, i32, ptr, ...) @av_log(ptr noundef %2, i32 noundef 48, ptr noundef nonnull @.str.3) #11
  %5 = getelementptr inbounds nuw i8, ptr %2, i64 32
  %6 = load ptr, ptr %5, align 8, !tbaa !37
  %7 = load ptr, ptr %6, align 8, !tbaa !38
  %8 = getelementptr inbounds nuw i8, ptr %7, i64 96
  %9 = load i32, ptr %8, align 8, !tbaa !91
  %10 = getelementptr inbounds nuw i8, ptr %7, i64 100
  %11 = load i32, ptr %10, align 4, !tbaa !92
  %12 = load i64, ptr %8, align 8
  %.sroa.0.0.extract.trunc.i = trunc i64 %12 to i32
  %.sroa.2.0.extract.shift.i = lshr i64 %12, 32
  %.sroa.2.0.extract.trunc.i = trunc nuw i64 %.sroa.2.0.extract.shift.i to i32
  %13 = sitofp i32 %.sroa.0.0.extract.trunc.i to double
  %14 = sitofp i32 %.sroa.2.0.extract.trunc.i to double
  %15 = fdiv nsz double %13, %14
  tail call void (ptr, i32, ptr, ...) @av_log(ptr noundef %2, i32 noundef 48, ptr noundef nonnull @.str.4, i32 noundef %9, i32 noundef %11, double noundef %15) #11
  %16 = getelementptr inbounds nuw i8, ptr %4, i64 84
  %17 = getelementptr inbounds nuw i8, ptr %4, i64 88
  %18 = getelementptr inbounds nuw i8, ptr %4, i64 76
  %19 = load i32, ptr %18, align 4, !tbaa !93
  %20 = sext i32 %19 to i64
  %21 = getelementptr inbounds nuw i8, ptr %4, i64 8
  %22 = load i32, ptr %21, align 8, !tbaa !94
  %23 = sext i32 %22 to i64
  %24 = mul nsw i64 %23, %20
  %25 = getelementptr inbounds nuw i8, ptr %4, i64 80
  %26 = load i32, ptr %25, align 4, !tbaa !95
  %27 = sext i32 %26 to i64
  %28 = getelementptr inbounds nuw i8, ptr %4, i64 12
  %29 = load i32, ptr %28, align 4, !tbaa !96
  %30 = sext i32 %29 to i64
  %31 = mul nsw i64 %30, %27
  %32 = tail call i64 @av_gcd(i64 noundef %24, i64 noundef %31) #12
  %33 = mul nsw i64 %27, %23
  %34 = tail call i32 @av_reduce(ptr noundef nonnull %16, ptr noundef nonnull %17, i64 noundef %32, i64 noundef %33, i64 noundef 2147483647) #11
  %35 = load i32, ptr %18, align 4, !tbaa !93
  %36 = load i32, ptr %25, align 4, !tbaa !95
  %37 = load i32, ptr %16, align 4, !tbaa !97
  %38 = load i32, ptr %17, align 4, !tbaa !98
  tail call void (ptr, i32, ptr, ...) @av_log(ptr noundef %2, i32 noundef 32, ptr noundef nonnull @.str.5, i32 noundef %35, i32 noundef %36, i32 noundef %37, i32 noundef %38, i32 noundef %34) #11
  %.not = icmp eq i32 %34, 0
  br i1 %.not, label %39, label %40

39:                                               ; preds = %1
  tail call void (ptr, i32, ptr, ...) @av_log(ptr noundef nonnull %2, i32 noundef 24, ptr noundef nonnull @.str.6) #11
  br label %40

40:                                               ; preds = %39, %1
  %41 = getelementptr inbounds nuw i8, ptr %0, i64 264
  %42 = load i64, ptr %21, align 8
  store i64 %42, ptr %41, align 8
  %43 = getelementptr inbounds nuw i8, ptr %0, i64 96
  %44 = load i64, ptr %16, align 4
  store i64 %44, ptr %43, align 8
  %45 = trunc i64 %44 to i32
  %46 = lshr i64 %44, 32
  %47 = trunc nuw i64 %46 to i32
  %48 = sitofp i32 %45 to double
  %49 = sitofp i32 %47 to double
  %50 = fdiv nsz double %48, %49
  %51 = getelementptr inbounds nuw i8, ptr %0, i64 40
  %52 = load i32, ptr %51, align 8, !tbaa !72
  %53 = getelementptr inbounds nuw i8, ptr %0, i64 44
  %54 = load i32, ptr %53, align 4, !tbaa !78
  tail call void (ptr, i32, ptr, ...) @av_log(ptr noundef nonnull %2, i32 noundef 48, ptr noundef nonnull @.str.7, i32 noundef %45, i32 noundef %47, double noundef %50, i32 noundef %52, i32 noundef %54) #11
  %55 = load i32, ptr %21, align 8, !tbaa !94
  %56 = load i32, ptr %28, align 4, !tbaa !96
  %57 = getelementptr inbounds nuw i8, ptr %4, i64 24
  %58 = load double, ptr %57, align 8, !tbaa !66
  %59 = getelementptr inbounds nuw i8, ptr %4, i64 32
  %60 = load i32, ptr %59, align 8, !tbaa !50
  %61 = getelementptr inbounds nuw i8, ptr %4, i64 36
  %62 = load i32, ptr %61, align 4, !tbaa !49
  tail call void (ptr, i32, ptr, ...) @av_log(ptr noundef nonnull %2, i32 noundef 32, ptr noundef nonnull @.str.8, i32 noundef %55, i32 noundef %56, double noundef %58, i32 noundef %60, i32 noundef %62) #11
  ret i32 0
}